target datalayout = "e-m:e-p270:32:32-p271:32:32-p272:64:64-i64:64-i128:128-f80:128-n8:16:32:64-S128"
target triple = "x86_64-pc-linux-gnu"

%struct.mbedtls_pk_info_t = type { i32, ptr, ptr, ptr, ptr, ptr, ptr, ptr, ptr, ptr, ptr, ptr }
%struct.mbedtls_pk_context = type { ptr, ptr }

; Function Attrs: inlinehint nounwind uwtable
define internal zeroext i8 @mbedtls_md_get_size_from_type(i32 noundef %0) #3 {
  %2 = alloca i32, align 4
  store i32 %0, ptr %2, align 4, !tbaa !16
  %3 = load i32, ptr %2, align 4, !tbaa !16
  %4 = call ptr @mbedtls_md_info_from_type(i32 noundef %3)
  %5 = call zeroext i8 @mbedtls_md_get_size(ptr noundef %4)
  ret i8 %5
}

; Function Attrs: inlinehint nounwind uwtable
define internal i32 @pk_hashlen_helper(i32 noundef %0, ptr noundef %1) #3 {
  %3 = alloca i32, align 4
  %4 = alloca i32, align 4
  %5 = alloca ptr, align 8
  store i32 %0, ptr %4, align 4, !tbaa !16
  store ptr %1, ptr %5, align 8, !tbaa !58
  %6 = load ptr, ptr %5, align 8, !tbaa !58
  %7 = load i64, ptr %6, align 8, !tbaa !41
  %8 = icmp ne i64 %7, 0
  br i1 %8, label %9, label %10

9:                                                ; preds = %2
  store i32 0, ptr %3, align 4
  br label %20

10:                                               ; preds = %2
  %11 = load i32, ptr %4, align 4, !tbaa !16
  %12 = call zeroext i8 @mbedtls_md_get_size_from_type(i32 noundef %11)
  %13 = zext i8 %12 to i64
  %14 = load ptr, ptr %5, align 8, !tbaa !58
  store i64 %13, ptr %14, align 8, !tbaa !41
  %15 = load ptr, ptr %5, align 8, !tbaa !58
  %16 = load i64, ptr %15, align 8, !tbaa !41
  %17 = icmp eq i64 %16, 0
  br i1 %17, label %18, label %19

18:                                               ; preds = %10
  store i32 -1, ptr %3, align 4
  br label %20

19:                                               ; preds = %10
  store i32 0, ptr %3, align 4
  br label %20

20:                                               ; preds = %19, %18, %9
  %21 = load i32, ptr %3, align 4
  ret i32 %21
}

; Function Attrs: nounwind uwtable
define hidden i32 @mbedtls_pk_verify_restartable(ptr noundef %0, i32 noundef %1, ptr noundef %2, i64 noundef %3, ptr noundef %4, i64 noundef %5, ptr noundef %6) #0 {
  %8 = alloca i32, align 4
  %9 = alloca ptr, align 8
  %10 = alloca i32, align 4
  %11 = alloca ptr, align 8
  %12 = alloca i64, align 8
  %13 = alloca ptr, align 8
  %14 = alloca i64, align 8
  %15 = alloca ptr, align 8
  store ptr %0, ptr %9, align 8, !tbaa !3
  store i32 %1, ptr %10, align 4, !tbaa !16
  store ptr %2, ptr %11, align 8, !tbaa !56
  store i64 %3, ptr %12, align 8, !tbaa !41
  store ptr %4, ptr %13, align 8, !tbaa !56
  store i64 %5, ptr %14, align 8, !tbaa !41
  store ptr %6, ptr %15, align 8, !tbaa !19
  %16 = load i32, ptr %10, align 4, !tbaa !16
  %17 = icmp ne i32 %16, 0
  br i1 %17, label %21, label %18

18:                                               ; preds = %7
  %19 = load i64, ptr %12, align 8, !tbaa !41
  %20 = icmp ne i64 %19, 0
  br i1 %20, label %21, label %25

21:                                               ; preds = %18, %7
  %22 = load ptr, ptr %11, align 8, !tbaa !56
  %23 = icmp eq ptr %22, null
  br i1 %23, label %24, label %25

24:                                               ; preds = %21
  store i32 -16000, ptr %8, align 4
  br label %56

25:                                               ; preds = %21, %18
  %26 = load ptr, ptr %9, align 8, !tbaa !3
  %27 = getelementptr inbounds nuw %struct.mbedtls_pk_context, ptr %26, i32 0, i32 0
  %28 = load ptr, ptr %27, align 8, !tbaa !8
  %29 = icmp eq ptr %28, null
  br i1 %29, label %34, label %30

30:                                               ; preds = %25
  %31 = load i32, ptr %10, align 4, !tbaa !16
  %32 = call i32 @pk_hashlen_helper(i32 noundef %31, ptr noundef %12)
  %33 = icmp ne i32 %32, 0
  br i1 %33, label %34, label %35

34:                                               ; preds = %30, %25
  store i32 -16000, ptr %8, align 4
  br label %56

35:                                               ; preds = %30
  %36 = load ptr, ptr %9, align 8, !tbaa !3
  %37 = getelementptr inbounds nuw %struct.mbedtls_pk_context, ptr %36, i32 0, i32 0
  %38 = load ptr, ptr %37, align 8, !tbaa !8
  %39 = getelementptr inbounds nuw %struct.mbedtls_pk_info_t, ptr %38, i32 0, i32 4
  %40 = load ptr, ptr %39, align 8, !tbaa !57
  %41 = icmp eq ptr %40, null
  br i1 %41, label %42, label %43

42:                                               ; preds = %35
  store i32 -16128, ptr %8, align 4
  br label %56

43:                                               ; preds = %35
  %44 = load ptr, ptr %9, align 8, !tbaa !3
  %45 = getelementptr inbounds nuw %struct.mbedtls_pk_context, ptr %44, i32 0, i32 0
  %46 = load ptr, ptr %45, align 8, !tbaa !8
  %47 = getelementptr inbounds nuw %struct.mbedtls_pk_info_t, ptr %46, i32 0, i32 4
  %48 = load ptr, ptr %47, align 8, !tbaa !57
  %49 = load ptr, ptr %9, align 8, !tbaa !3
  %50 = load i32, ptr %10, align 4, !tbaa !16
  %51 = load ptr, ptr %11, align 8, !tbaa !56
  %52 = load i64, ptr %12, align 8, !tbaa !41
  %53 = load ptr, ptr %13, align 8, !tbaa !56
  %54 = load i64, ptr %14, align 8, !tbaa !41
  %55 = call i32 %48(ptr noundef %49, i32 noundef %50, ptr noundef %51, i64 noundef %52, ptr noundef %53, i64 noundef %54)
  store i32 %55, ptr %8, align 4
  br label %56

56:                                               ; preds = %43, %42, %34, %24
  %57 = load i32, ptr %8, align 4
  ret i32 %57
}