; Function Attrs: nounwind uwtable
define hidden i32 @mbedtls_pk_verify_restartable(ptr noundef %0, i32 noundef %1, ptr noundef %2, i64 noundef %3, ptr noundef %4, i64 noundef %5, ptr noundef readnone captures(none) %6) local_unnamed_addr #1 {
  %8 = icmp ne i32 %1, 0
  %9 = icmp ne i64 %3, 0
  %or.cond = or i1 %8, %9
  %10 = icmp eq ptr %2, null
  %or.cond3 = and i1 %10, %or.cond
  br i1 %or.cond3, label %24, label %11

11:                                               ; preds = %7
  %12 = load ptr, ptr %0, align 8, !tbaa !3
  %13 = icmp eq ptr %12, null
  br i1 %13, label %24, label %14

14:                                               ; preds = %11
  %.not.i = icmp eq i64 %3, 0
  br i1 %.not.i, label %pk_hashlen_helper.exit, label %pk_hashlen_helper.exit.thread

pk_hashlen_helper.exit:                           ; preds = %14
  %15 = tail call ptr @mbedtls_md_info_from_type(i32 noundef %1) #7
  %16 = tail call zeroext i8 @mbedtls_md_get_size(ptr noundef %15) #7
  %.not = icmp eq i8 %16, 0
  br i1 %.not, label %24, label %pk_hashlen_helper.exit.pk_hashlen_helper.exit.thread_crit_edge

pk_hashlen_helper.exit.pk_hashlen_helper.exit.thread_crit_edge: ; preds = %pk_hashlen_helper.exit
  %17 = zext i8 %16 to i64
  %.pre = load ptr, ptr %0, align 8, !tbaa !3
  br label %pk_hashlen_helper.exit.thread

pk_hashlen_helper.exit.thread:                    ; preds = %pk_hashlen_helper.exit.pk_hashlen_helper.exit.thread_crit_edge, %14
  %18 = phi ptr [ %.pre, %pk_hashlen_helper.exit.pk_hashlen_helper.exit.thread_crit_edge ], [ %12, %14 ]
  %.01620 = phi i64 [ %17, %pk_hashlen_helper.exit.pk_hashlen_helper.exit.thread_crit_edge ], [ %3, %14 ]
  %19 = getelementptr inbounds nuw i8, ptr %18, i64 32
  %20 = load ptr, ptr %19, align 8, !tbaa !43
  %21 = icmp eq ptr %20, null
  br i1 %21, label %24, label %22

22:                                               ; preds = %pk_hashlen_helper.exit.thread
  %23 = tail call i32 %20(ptr noundef nonnull %0, i32 noundef %1, ptr noundef %2, i64 noundef %.01620, ptr noundef %4, i64 noundef %5) #7
  br label %24

24:                                               ; preds = %pk_hashlen_helper.exit.thread, %11, %pk_hashlen_helper.exit, %7, %22
  %.0 = phi i32 [ %23, %22 ], [ -16000, %7 ], [ -16000, %pk_hashlen_helper.exit ], [ -16000, %11 ], [ -16128, %pk_hashlen_helper.exit.thread ]
  ret i32 %.0
}